target datalayout = "e-m:e-p270:32:32-p271:32:32-p272:64:64-i64:64-i128:128-f80:128-n8:16:32:64-S128"
target triple = "x86_64-pc-linux-gnu"

%"class.icu_77::UCharCharacterIterator" = type { %"class.icu_77::CharacterIterator", ptr }
%"class.icu_77::CharacterIterator" = type { %"class.icu_77::ForwardCharacterIterator", i32, i32, i32, i32 }
%"class.icu_77::ForwardCharacterIterator" = type { %"class.icu_77::UObject" }
%"class.icu_77::UObject" = type { ptr }

; Function Attrs: mustprogress nounwind uwtable
define noundef i32 @_ZN6icu_7722UCharCharacterIterator14first32PostIncEv(ptr noundef nonnull align 8 dereferenceable(32) %0) unnamed_addr #0 align 2 {
  %2 = alloca i32, align 4
  %3 = alloca ptr, align 8
  %4 = alloca i32, align 4
  %5 = alloca i16, align 2
  store ptr %0, ptr %3, align 8, !tbaa !3
  %6 = load ptr, ptr %3, align 8
  %7 = getelementptr inbounds nuw %"class.icu_77::CharacterIterator", ptr %6, i32 0, i32 3
  %8 = load i32, ptr %7, align 8, !tbaa !24
  %9 = getelementptr inbounds nuw %"class.icu_77::CharacterIterator", ptr %6, i32 0, i32 2
  store i32 %8, ptr %9, align 4, !tbaa !23
  %10 = getelementptr inbounds nuw %"class.icu_77::CharacterIterator", ptr %6, i32 0, i32 2
  %11 = load i32, ptr %10, align 4, !tbaa !23
  %12 = getelementptr inbounds nuw %"class.icu_77::CharacterIterator", ptr %6, i32 0, i32 4
  %13 = load i32, ptr %12, align 4, !tbaa !25
  %14 = icmp slt i32 %11, %13
  br i1 %14, label %15, label %61

15:                                               ; preds = %1
  call void @llvm.lifetime.start.p0(i64 4, ptr %4) #7
  br label %16

16:                                               ; preds = %15
  %17 = getelementptr inbounds nuw %"class.icu_77::UCharCharacterIterator", ptr %6, i32 0, i32 1
  %18 = load ptr, ptr %17, align 8, !tbaa !10
  %19 = getelementptr inbounds nuw %"class.icu_77::CharacterIterator", ptr %6, i32 0, i32 2
  %20 = load i32, ptr %19, align 4, !tbaa !23
  %21 = add nsw i32 %20, 1
  store i32 %21, ptr %19, align 4, !tbaa !23
  %22 = sext i32 %20 to i64
  %23 = getelementptr inbounds i16, ptr %18, i64 %22
  %24 = load i16, ptr %23, align 2, !tbaa !28
  %25 = zext i16 %24 to i32
  store i32 %25, ptr %4, align 4, !tbaa !19
  %26 = load i32, ptr %4, align 4, !tbaa !19
  %27 = and i32 %26, -1024
  %28 = icmp eq i32 %27, 55296
  br i1 %28, label %29, label %57

29:                                               ; preds = %16
  call void @llvm.lifetime.start.p0(i64 2, ptr %5) #7
  %30 = getelementptr inbounds nuw %"class.icu_77::CharacterIterator", ptr %6, i32 0, i32 2
  %31 = load i32, ptr %30, align 4, !tbaa !23
  %32 = getelementptr inbounds nuw %"class.icu_77::CharacterIterator", ptr %6, i32 0, i32 4
  %33 = load i32, ptr %32, align 4, !tbaa !25
  %34 = icmp ne i32 %31, %33
  br i1 %34, label %35, label %56

35:                                               ; preds = %29
  %36 = getelementptr inbounds nuw %"class.icu_77::UCharCharacterIterator", ptr %6, i32 0, i32 1
  %37 = load ptr, ptr %36, align 8, !tbaa !10
  %38 = getelementptr inbounds nuw %"class.icu_77::CharacterIterator", ptr %6, i32 0, i32 2
  %39 = load i32, ptr %38, align 4, !tbaa !23
  %40 = sext i32 %39 to i64
  %41 = getelementptr inbounds i16, ptr %37, i64 %40
  %42 = load i16, ptr %41, align 2, !tbaa !28
  store i16 %42, ptr %5, align 2, !tbaa !30
  %43 = zext i16 %42 to i32
  %44 = and i32 %43, -1024
  %45 = icmp eq i32 %44, 56320
  br i1 %45, label %46, label %56

46:                                               ; preds = %35
  %47 = getelementptr inbounds nuw %"class.icu_77::CharacterIterator", ptr %6, i32 0, i32 2
  %48 = load i32, ptr %47, align 4, !tbaa !23
  %49 = add nsw i32 %48, 1
  store i32 %49, ptr %47, align 4, !tbaa !23
  %50 = load i32, ptr %4, align 4, !tbaa !19
  %51 = shl i32 %50, 10
  %52 = load i16, ptr %5, align 2, !tbaa !30
  %53 = zext i16 %52 to i32
  %54 = add nsw i32 %51, %53
  %55 = sub nsw i32 %54, 56613888
  store i32 %55, ptr %4, align 4, !tbaa !19
  br label %56

56:                                               ; preds = %46, %35, %29
  call void @llvm.lifetime.end.p0(i64 2, ptr %5) #7
  br label %57

57:                                               ; preds = %56, %16
  br label %58

58:                                               ; preds = %57
  br label %59

59:                                               ; preds = %58
  %60 = load i32, ptr %4, align 4, !tbaa !19
  store i32 %60, ptr %2, align 4
  call void @llvm.lifetime.end.p0(i64 4, ptr %4) #7
  br label %62

61:                                               ; preds = %1
  store i32 65535, ptr %2, align 4
  br label %62

62:                                               ; preds = %61, %59
  %63 = load i32, ptr %2, align 4
  ret i32 %63
}